; Function Attrs: mustprogress nounwind uwtable
define internal void @_ZN6icu_7712_GLOBAL__N_114PatternHandlerD0Ev(ptr noundef nonnull align 8 dereferenceable(152) initializes((0, 8)) %0) unnamed_addr #0 align 2 {
  store ptr getelementptr inbounds nuw inrange(-16, 48) (i8, ptr @_ZTVN6icu_7712_GLOBAL__N_114PatternHandlerE, i64 16), ptr %0, align 8, !tbaa !15
  %2 = getelementptr inbounds nuw i8, ptr %0, i64 80
  tail call void @_ZN6icu_7715SimpleFormatterD1Ev(ptr noundef nonnull align 8 dereferenceable(72) %2) #19
  %3 = getelementptr inbounds nuw i8, ptr %0, i64 8
  tail call void @_ZN6icu_7715SimpleFormatterD1Ev(ptr noundef nonnull align 8 dereferenceable(72) %3) #19
  tail call void @_ZN6icu_777UObjectD2Ev(ptr noundef nonnull align 8 dereferenceable(152) %0) #19
  tail call void @_ZN6icu_777UMemorydlEPv(ptr noundef nonnull %0) #19
  ret void
}